target datalayout = "e-m:e-p270:32:32-p271:32:32-p272:64:64-i64:64-i128:128-f80:128-n8:16:32:64-S128"
target triple = "x86_64-pc-linux-gnu"

%struct.Cache = type { ptr, i32, i32, i32, i32, i64, i64, i64, i64 }
%struct.CacheSet = type { ptr, ptr, i64, ptr }

; Function Attrs: nounwind sspstrong uwtable
define internal void @lru_priorities_init(ptr noundef %0) #0 {
  %2 = alloca ptr, align 8
  %3 = alloca i32, align 4
  %4 = alloca i64, align 8
  %5 = alloca i64, align 8
  %6 = alloca ptr, align 8
  %7 = alloca ptr, align 8
  store ptr %0, ptr %2, align 8
  call void @llvm.lifetime.start.p0(i64 4, ptr %3) #10
  store i32 0, ptr %3, align 4, !annotation !3
  store i32 0, ptr %3, align 4
  br label %8

8:                                                ; preds = %62, %1
  %9 = load i32, ptr %3, align 4
  %10 = load ptr, ptr %2, align 8
  %11 = getelementptr inbounds nuw %struct.Cache, ptr %10, i32 0, i32 1
  %12 = load i32, ptr %11, align 8
  %13 = icmp slt i32 %9, %12
  br i1 %13, label %14, label %65

14:                                               ; preds = %8
  call void @llvm.lifetime.start.p0(i64 8, ptr %4) #10
  %15 = load ptr, ptr %2, align 8
  %16 = getelementptr inbounds nuw %struct.Cache, ptr %15, i32 0, i32 3
  %17 = load i32, ptr %16, align 8
  %18 = sext i32 %17 to i64
  store i64 %18, ptr %4, align 8
  call void @llvm.lifetime.start.p0(i64 8, ptr %5) #10
  store i64 8, ptr %5, align 8
  call void @llvm.lifetime.start.p0(i64 8, ptr %6) #10
  store ptr null, ptr %6, align 8, !annotation !3
  %19 = load i64, ptr %5, align 8
  %20 = icmp eq i64 %19, 1
  br i1 %20, label %21, label %24

21:                                               ; preds = %14
  %22 = load i64, ptr %4, align 8
  %23 = call noalias ptr @g_malloc0(i64 noundef %22) #11
  store ptr %23, ptr %6, align 8
  br label %45

24:                                               ; preds = %14
  %25 = load i64, ptr %4, align 8
  %26 = call i1 @llvm.is.constant.i64(i64 %25)
  br i1 %26, label %27, label %40

27:                                               ; preds = %24
  %28 = load i64, ptr %5, align 8
  %29 = icmp eq i64 %28, 0
  br i1 %29, label %35, label %30

30:                                               ; preds = %27
  %31 = load i64, ptr %4, align 8
  %32 = load i64, ptr %5, align 8
  %33 = udiv i64 -1, %32
  %34 = icmp ule i64 %31, %33
  br i1 %34, label %35, label %40

35:                                               ; preds = %30, %27
  %36 = load i64, ptr %4, align 8
  %37 = load i64, ptr %5, align 8
  %38 = mul i64 %36, %37
  %39 = call noalias ptr @g_malloc0(i64 noundef %38) #11
  store ptr %39, ptr %6, align 8
  br label %44

40:                                               ; preds = %30, %24
  %41 = load i64, ptr %4, align 8
  %42 = load i64, ptr %5, align 8
  %43 = call noalias ptr @g_malloc0_n(i64 noundef %41, i64 noundef %42) #12
  store ptr %43, ptr %6, align 8
  br label %44

44:                                               ; preds = %40, %35
  br label %45

45:                                               ; preds = %44, %21
  %46 = load ptr, ptr %6, align 8
  store ptr %46, ptr %7, align 8
  call void @llvm.lifetime.end.p0(i64 8, ptr %6) #10
  call void @llvm.lifetime.end.p0(i64 8, ptr %5) #10
  call void @llvm.lifetime.end.p0(i64 8, ptr %4) #10
  %47 = load ptr, ptr %7, align 8
  %48 = load ptr, ptr %2, align 8
  %49 = getelementptr inbounds nuw %struct.Cache, ptr %48, i32 0, i32 0
  %50 = load ptr, ptr %49, align 8
  %51 = load i32, ptr %3, align 4
  %52 = sext i32 %51 to i64
  %53 = getelementptr inbounds %struct.CacheSet, ptr %50, i64 %52
  %54 = getelementptr inbounds nuw %struct.CacheSet, ptr %53, i32 0, i32 1
  store ptr %47, ptr %54, align 8
  %55 = load ptr, ptr %2, align 8
  %56 = getelementptr inbounds nuw %struct.Cache, ptr %55, i32 0, i32 0
  %57 = load ptr, ptr %56, align 8
  %58 = load i32, ptr %3, align 4
  %59 = sext i32 %58 to i64
  %60 = getelementptr inbounds %struct.CacheSet, ptr %57, i64 %59
  %61 = getelementptr inbounds nuw %struct.CacheSet, ptr %60, i32 0, i32 2
  store i64 0, ptr %61, align 8
  br label %62

62:                                               ; preds = %45
  %63 = load i32, ptr %3, align 4
  %64 = add i32 %63, 1
  store i32 %64, ptr %3, align 4
  br label %8, !llvm.loop !10

65:                                               ; preds = %8
  call void @llvm.lifetime.end.p0(i64 4, ptr %3) #10
  ret void
}