; Function Attrs: nounwind sspstrong uwtable
define internal void @lru_priorities_init(ptr noundef readonly captures(none) %0) #0 {
  %2 = getelementptr inbounds nuw i8, ptr %0, i64 8
  %3 = load i32, ptr %2, align 8
  %4 = icmp sgt i32 %3, 0
  br i1 %4, label %.lr.ph, label %._crit_edge

.lr.ph:                                           ; preds = %1
  %5 = getelementptr inbounds nuw i8, ptr %0, i64 16
  br label %6

6:                                                ; preds = %6, %.lr.ph
  %indvars.iv = phi i64 [ 0, %.lr.ph ], [ %indvars.iv.next, %6 ]
  %7 = load i32, ptr %5, align 8
  %8 = sext i32 %7 to i64
  %9 = tail call noalias ptr @g_malloc0_n(i64 noundef %8, i64 noundef 8) #16
  %10 = load ptr, ptr %0, align 8
  %11 = getelementptr inbounds nuw %struct.CacheSet, ptr %10, i64 %indvars.iv, i32 1
  store ptr %9, ptr %11, align 8
  %12 = load ptr, ptr %0, align 8
  %13 = getelementptr inbounds nuw %struct.CacheSet, ptr %12, i64 %indvars.iv, i32 2
  store i64 0, ptr %13, align 8
  %indvars.iv.next = add nuw nsw i64 %indvars.iv, 1
  %14 = load i32, ptr %2, align 8
  %15 = sext i32 %14 to i64
  %16 = icmp slt i64 %indvars.iv.next, %15
  br i1 %16, label %6, label %._crit_edge, !llvm.loop !19

._crit_edge:                                      ; preds = %6, %1
  ret void
}